target datalayout = "e-m:e-p270:32:32-p271:32:32-p272:64:64-i64:64-i128:128-f80:128-n8:16:32:64-S128"
target triple = "x86_64-pc-linux-gnu"

%struct.dictDefragFunctions = type { ptr, ptr, ptr }
%struct.redisObject = type { i32, i32, ptr }
%struct.zset = type { ptr, ptr }
%struct.scanLaterZsetData = type { ptr }

@__const.scanLaterZset.defragfns = private unnamed_addr constant %struct.dictDefragFunctions { ptr @activeDefragAlloc, ptr null, ptr null }, align 8
@__const.scanLaterSet.defragfns = private unnamed_addr constant %struct.dictDefragFunctions { ptr @activeDefragAlloc, ptr @activeDefragSds, ptr null }, align 8
@__const.scanLaterHash.defragfns = private unnamed_addr constant %struct.dictDefragFunctions { ptr @activeDefragAlloc, ptr null, ptr @activeDefragSds }, align 8

; Function Attrs: nounwind uwtable
define dso_local void @scanLaterHash(ptr noundef %0, ptr noundef %1) #0 {
  %3 = alloca ptr, align 8
  %4 = alloca ptr, align 8
  %5 = alloca ptr, align 8
  %6 = alloca %struct.dictDefragFunctions, align 8
  store ptr %0, ptr %3, align 8, !tbaa !42
  store ptr %1, ptr %4, align 8, !tbaa !111
  %7 = load ptr, ptr %3, align 8, !tbaa !42
  %8 = load i32, ptr %7, align 8
  %9 = and i32 %8, 15
  %10 = icmp ne i32 %9, 4
  br i1 %10, label %17, label %11

11:                                               ; preds = %2
  %12 = load ptr, ptr %3, align 8, !tbaa !42
  %13 = load i32, ptr %12, align 8
  %14 = lshr i32 %13, 4
  %15 = and i32 %14, 15
  %16 = icmp ne i32 %15, 2
  br i1 %16, label %17, label %18

17:                                               ; preds = %11, %2
  br label %28

18:                                               ; preds = %11
  call void @llvm.lifetime.start.p0(i64 8, ptr %5) #10
  %19 = load ptr, ptr %3, align 8, !tbaa !42
  %20 = getelementptr inbounds nuw %struct.redisObject, ptr %19, i32 0, i32 2
  %21 = load ptr, ptr %20, align 8, !tbaa !47
  store ptr %21, ptr %5, align 8, !tbaa !53
  call void @llvm.lifetime.start.p0(i64 24, ptr %6) #10
  call void @llvm.memcpy.p0.p0.i64(ptr align 8 %6, ptr align 8 @__const.scanLaterHash.defragfns, i64 24, i1 false)
  %22 = load ptr, ptr %5, align 8, !tbaa !53
  %23 = load ptr, ptr %4, align 8, !tbaa !111
  %24 = load i64, ptr %23, align 8, !tbaa !39
  %25 = load ptr, ptr %5, align 8, !tbaa !53
  %26 = call i64 @dictScanDefrag(ptr noundef %22, i64 noundef %24, ptr noundef @activeDefragHfieldDictCallback, ptr noundef %6, ptr noundef %25)
  %27 = load ptr, ptr %4, align 8, !tbaa !111
  store i64 %26, ptr %27, align 8, !tbaa !39
  call void @llvm.lifetime.end.p0(i64 24, ptr %6) #10
  call void @llvm.lifetime.end.p0(i64 8, ptr %5) #10
  br label %28

28:                                               ; preds = %18, %17
  ret void
}

; Function Attrs: nounwind uwtable
define dso_local void @scanLaterZset(ptr noundef %0, ptr noundef %1) #0 {
  %3 = alloca ptr, align 8
  %4 = alloca ptr, align 8
  %5 = alloca ptr, align 8
  %6 = alloca ptr, align 8
  %7 = alloca %struct.scanLaterZsetData, align 8
  %8 = alloca %struct.dictDefragFunctions, align 8
  store ptr %0, ptr %3, align 8, !tbaa !42
  store ptr %1, ptr %4, align 8, !tbaa !111
  %9 = load ptr, ptr %3, align 8, !tbaa !42
  %10 = load i32, ptr %9, align 8
  %11 = and i32 %10, 15
  %12 = icmp ne i32 %11, 3
  br i1 %12, label %19, label %13

13:                                               ; preds = %2
  %14 = load ptr, ptr %3, align 8, !tbaa !42
  %15 = load i32, ptr %14, align 8
  %16 = lshr i32 %15, 4
  %17 = and i32 %16, 15
  %18 = icmp ne i32 %17, 7
  br i1 %18, label %19, label %20

19:                                               ; preds = %13, %2
  br label %34

20:                                               ; preds = %13
  call void @llvm.lifetime.start.p0(i64 8, ptr %5) #10
  %21 = load ptr, ptr %3, align 8, !tbaa !42
  %22 = getelementptr inbounds nuw %struct.redisObject, ptr %21, i32 0, i32 2
  %23 = load ptr, ptr %22, align 8, !tbaa !47
  store ptr %23, ptr %5, align 8, !tbaa !73
  call void @llvm.lifetime.start.p0(i64 8, ptr %6) #10
  %24 = load ptr, ptr %5, align 8, !tbaa !73
  %25 = getelementptr inbounds nuw %struct.zset, ptr %24, i32 0, i32 0
  %26 = load ptr, ptr %25, align 8, !tbaa !77
  store ptr %26, ptr %6, align 8, !tbaa !53
  call void @llvm.lifetime.start.p0(i64 8, ptr %7) #10
  %27 = getelementptr inbounds nuw %struct.scanLaterZsetData, ptr %7, i32 0, i32 0
  %28 = load ptr, ptr %5, align 8, !tbaa !73
  store ptr %28, ptr %27, align 8, !tbaa !116
  call void @llvm.lifetime.start.p0(i64 24, ptr %8) #10
  call void @llvm.memcpy.p0.p0.i64(ptr align 8 %8, ptr align 8 @__const.scanLaterZset.defragfns, i64 24, i1 false)
  %29 = load ptr, ptr %6, align 8, !tbaa !53
  %30 = load ptr, ptr %4, align 8, !tbaa !111
  %31 = load i64, ptr %30, align 8, !tbaa !39
  %32 = call i64 @dictScanDefrag(ptr noundef %29, i64 noundef %31, ptr noundef @scanLaterZsetCallback, ptr noundef %8, ptr noundef %7)
  %33 = load ptr, ptr %4, align 8, !tbaa !111
  store i64 %32, ptr %33, align 8, !tbaa !39
  call void @llvm.lifetime.end.p0(i64 24, ptr %8) #10
  call void @llvm.lifetime.end.p0(i64 8, ptr %7) #10
  call void @llvm.lifetime.end.p0(i64 8, ptr %6) #10
  call void @llvm.lifetime.end.p0(i64 8, ptr %5) #10
  br label %34

34:                                               ; preds = %20, %19
  ret void
}

; Function Attrs: nounwind uwtable
define dso_local void @scanLaterSet(ptr noundef %0, ptr noundef %1) #0 {
  %3 = alloca ptr, align 8
  %4 = alloca ptr, align 8
  %5 = alloca ptr, align 8
  %6 = alloca %struct.dictDefragFunctions, align 8
  store ptr %0, ptr %3, align 8, !tbaa !42
  store ptr %1, ptr %4, align 8, !tbaa !111
  %7 = load ptr, ptr %3, align 8, !tbaa !42
  %8 = load i32, ptr %7, align 8
  %9 = and i32 %8, 15
  %10 = icmp ne i32 %9, 2
  br i1 %10, label %17, label %11

11:                                               ; preds = %2
  %12 = load ptr, ptr %3, align 8, !tbaa !42
  %13 = load i32, ptr %12, align 8
  %14 = lshr i32 %13, 4
  %15 = and i32 %14, 15
  %16 = icmp ne i32 %15, 2
  br i1 %16, label %17, label %18

17:                                               ; preds = %11, %2
  br label %27

18:                                               ; preds = %11
  call void @llvm.lifetime.start.p0(i64 8, ptr %5) #10
  %19 = load ptr, ptr %3, align 8, !tbaa !42
  %20 = getelementptr inbounds nuw %struct.redisObject, ptr %19, i32 0, i32 2
  %21 = load ptr, ptr %20, align 8, !tbaa !47
  store ptr %21, ptr %5, align 8, !tbaa !53
  call void @llvm.lifetime.start.p0(i64 24, ptr %6) #10
  call void @llvm.memcpy.p0.p0.i64(ptr align 8 %6, ptr align 8 @__const.scanLaterSet.defragfns, i64 24, i1 false)
  %22 = load ptr, ptr %5, align 8, !tbaa !53
  %23 = load ptr, ptr %4, align 8, !tbaa !111
  %24 = load i64, ptr %23, align 8, !tbaa !39
  %25 = call i64 @dictScanDefrag(ptr noundef %22, i64 noundef %24, ptr noundef @scanCallbackCountScanned, ptr noundef %6, ptr noundef null)
  %26 = load ptr, ptr %4, align 8, !tbaa !111
  store i64 %25, ptr %26, align 8, !tbaa !39
  call void @llvm.lifetime.end.p0(i64 24, ptr %6) #10
  call void @llvm.lifetime.end.p0(i64 8, ptr %5) #10
  br label %27

27:                                               ; preds = %18, %17
  ret void
}

; Function Attrs: nounwind uwtable
define dso_local i32 @defragLaterItem(ptr noundef %0, ptr noundef %1, i64 noundef %2, i32 noundef %3) #0 {
  %5 = alloca i32, align 4
  %6 = alloca ptr, align 8
  %7 = alloca ptr, align 8
  %8 = alloca i64, align 8
  %9 = alloca i32, align 4
  %10 = alloca ptr, align 8
  %11 = alloca i32, align 4
  %12 = alloca %struct.redisObject, align 8
  store ptr %0, ptr %6, align 8, !tbaa !75
  store ptr %1, ptr %7, align 8, !tbaa !111
  store i64 %2, ptr %8, align 8, !tbaa !113
  store i32 %3, ptr %9, align 4, !tbaa !44
  %13 = load ptr, ptr %6, align 8, !tbaa !75
  %14 = icmp ne ptr %13, null
  br i1 %14, label %15, label %97

15:                                               ; preds = %4
  call void @llvm.lifetime.start.p0(i64 8, ptr %10) #10
  %16 = load ptr, ptr %6, align 8, !tbaa !75
  %17 = call ptr @dictGetVal(ptr noundef %16)
  store ptr %17, ptr %10, align 8, !tbaa !42
  %18 = load ptr, ptr %10, align 8, !tbaa !42
  %19 = load i32, ptr %18, align 8
  %20 = and i32 %19, 15
  %21 = icmp eq i32 %20, 1
  br i1 %21, label %22, label %28

22:                                               ; preds = %15
  %23 = load ptr, ptr %10, align 8, !tbaa !42
  %24 = load ptr, ptr %7, align 8, !tbaa !111
  %25 = load i64, ptr %8, align 8, !tbaa !113
  %26 = call i64 @scanLaterList(ptr noundef %23, ptr noundef %24, i64 noundef %25)
  %27 = trunc i64 %26 to i32
  store i32 %27, ptr %5, align 4
  store i32 1, ptr %11, align 4
  br label %94

28:                                               ; preds = %15
  %29 = load ptr, ptr %10, align 8, !tbaa !42
  %30 = load i32, ptr %29, align 8
  %31 = and i32 %30, 15
  %32 = icmp eq i32 %31, 2
  br i1 %32, label %33, label %36

33:                                               ; preds = %28
  %34 = load ptr, ptr %10, align 8, !tbaa !42
  %35 = load ptr, ptr %7, align 8, !tbaa !111
  call void @scanLaterSet(ptr noundef %34, ptr noundef %35)
  br label %92

36:                                               ; preds = %28
  %37 = load ptr, ptr %10, align 8, !tbaa !42
  %38 = load i32, ptr %37, align 8
  %39 = and i32 %38, 15
  %40 = icmp eq i32 %39, 3
  br i1 %40, label %41, label %44

41:                                               ; preds = %36
  %42 = load ptr, ptr %10, align 8, !tbaa !42
  %43 = load ptr, ptr %7, align 8, !tbaa !111
  call void @scanLaterZset(ptr noundef %42, ptr noundef %43)
  br label %91

44:                                               ; preds = %36
  %45 = load ptr, ptr %10, align 8, !tbaa !42
  %46 = load i32, ptr %45, align 8
  %47 = and i32 %46, 15
  %48 = icmp eq i32 %47, 4
  br i1 %48, label %49, label %52

49:                                               ; preds = %44
  %50 = load ptr, ptr %10, align 8, !tbaa !42
  %51 = load ptr, ptr %7, align 8, !tbaa !111
  call void @scanLaterHash(ptr noundef %50, ptr noundef %51)
  br label %90

52:                                               ; preds = %44
  %53 = load ptr, ptr %10, align 8, !tbaa !42
  %54 = load i32, ptr %53, align 8
  %55 = and i32 %54, 15
  %56 = icmp eq i32 %55, 6
  br i1 %56, label %57, label %62

57:                                               ; preds = %52
  %58 = load ptr, ptr %10, align 8, !tbaa !42
  %59 = load ptr, ptr %7, align 8, !tbaa !111
  %60 = load i64, ptr %8, align 8, !tbaa !113
  %61 = call i32 @scanLaterStreamListpacks(ptr noundef %58, ptr noundef %59, i64 noundef %60)
  store i32 %61, ptr %5, align 4
  store i32 1, ptr %11, align 4
  br label %94

62:                                               ; preds = %52
  %63 = load ptr, ptr %10, align 8, !tbaa !42
  %64 = load i32, ptr %63, align 8
  %65 = and i32 %64, 15
  %66 = icmp eq i32 %65, 5
  br i1 %66, label %67, label %86

67:                                               ; preds = %62
  call void @llvm.lifetime.start.p0(i64 16, ptr %12) #10
  br label %68

68:                                               ; preds = %67
  %69 = getelementptr inbounds nuw %struct.redisObject, ptr %12, i32 0, i32 1
  store i32 2147483646, ptr %69, align 4, !tbaa !45
  %70 = load i32, ptr %12, align 8
  %71 = and i32 %70, -16
  %72 = or i32 %71, 0
  store i32 %72, ptr %12, align 8
  %73 = load i32, ptr %12, align 8
  %74 = and i32 %73, -241
  %75 = or i32 %74, 0
  store i32 %75, ptr %12, align 8
  %76 = load ptr, ptr %6, align 8, !tbaa !75
  %77 = call ptr @dictGetKey(ptr noundef %76)
  %78 = getelementptr inbounds nuw %struct.redisObject, ptr %12, i32 0, i32 2
  store ptr %77, ptr %78, align 8, !tbaa !47
  br label %79

79:                                               ; preds = %68
  br label %80

80:                                               ; preds = %79
  %81 = load ptr, ptr %10, align 8, !tbaa !42
  %82 = load ptr, ptr %7, align 8, !tbaa !111
  %83 = load i64, ptr %8, align 8, !tbaa !113
  %84 = load i32, ptr %9, align 4, !tbaa !44
  %85 = call i32 @moduleLateDefrag(ptr noundef %12, ptr noundef %81, ptr noundef %82, i64 noundef %83, i32 noundef %84)
  store i32 %85, ptr %5, align 4
  store i32 1, ptr %11, align 4
  call void @llvm.lifetime.end.p0(i64 16, ptr %12) #10
  br label %94

86:                                               ; preds = %62
  %87 = load ptr, ptr %7, align 8, !tbaa !111
  store i64 0, ptr %87, align 8, !tbaa !39
  br label %88

88:                                               ; preds = %86
  br label %89

89:                                               ; preds = %88
  br label %90

90:                                               ; preds = %89, %49
  br label %91

91:                                               ; preds = %90, %41
  br label %92

92:                                               ; preds = %91, %33
  br label %93

93:                                               ; preds = %92
  store i32 0, ptr %11, align 4
  br label %94

94:                                               ; preds = %93, %80, %57, %22
  call void @llvm.lifetime.end.p0(i64 8, ptr %10) #10
  %95 = load i32, ptr %11, align 4
  switch i32 %95, label %102 [
    i32 0, label %96
    i32 1, label %100
  ]

96:                                               ; preds = %94
  br label %99

97:                                               ; preds = %4
  %98 = load ptr, ptr %7, align 8, !tbaa !111
  store i64 0, ptr %98, align 8, !tbaa !39
  br label %99

99:                                               ; preds = %97, %96
  store i32 0, ptr %5, align 4
  br label %100

100:                                              ; preds = %99, %94
  %101 = load i32, ptr %5, align 4
  ret i32 %101

102:                                              ; preds = %94
  unreachable
}