; Function Attrs: nounwind uwtable
define dso_local i32 @defragLaterItem(ptr noundef %0, ptr noundef %1, i64 noundef %2, i32 noundef %3) local_unnamed_addr #0 {
  %5 = alloca %struct.dictDefragFunctions, align 8
  %6 = alloca %struct.scanLaterZsetData, align 8
  %7 = alloca %struct.dictDefragFunctions, align 8
  %8 = alloca %struct.dictDefragFunctions, align 8
  %9 = alloca %struct.redisObject, align 8
  %.not = icmp eq ptr %0, null
  br i1 %.not, label %47, label %10

10:                                               ; preds = %4
  %11 = tail call ptr @dictGetVal(ptr noundef nonnull %0) #10
  %12 = load i32, ptr %11, align 8
  %13 = and i32 %12, 15
  switch i32 %13, label %46 [
    i32 1, label %14
    i32 2, label %17
    i32 3, label %24
    i32 4, label %32
    i32 6, label %39
    i32 5, label %41
  ]

14:                                               ; preds = %10
  %15 = tail call i64 @scanLaterList(ptr noundef nonnull %11, ptr noundef %1, i64 noundef %2)
  %16 = trunc nuw nsw i64 %15 to i32
  br label %scanLaterSet.exit

17:                                               ; preds = %10
  %18 = and i32 %12, 255
  %or.cond.i = icmp eq i32 %18, 34
  br i1 %or.cond.i, label %19, label %scanLaterSet.exit

19:                                               ; preds = %17
  %20 = getelementptr inbounds nuw i8, ptr %11, i64 8
  %21 = load ptr, ptr %20, align 8, !tbaa !41
  call void @llvm.lifetime.start.p0(i64 24, ptr nonnull %8) #10
  call void @llvm.memcpy.p0.p0.i64(ptr noundef nonnull align 8 dereferenceable(24) %8, ptr noundef nonnull align 8 dereferenceable(24) @__const.scanLaterSet.defragfns, i64 24, i1 false)
  %22 = load i64, ptr %1, align 8, !tbaa !94
  %23 = call i64 @dictScanDefrag(ptr noundef %21, i64 noundef %22, ptr noundef nonnull @scanCallbackCountScanned, ptr noundef nonnull %8, ptr noundef null) #10
  store i64 %23, ptr %1, align 8, !tbaa !94
  call void @llvm.lifetime.end.p0(i64 24, ptr nonnull %8) #10
  br label %scanLaterSet.exit

24:                                               ; preds = %10
  %25 = and i32 %12, 255
  %or.cond.i31 = icmp eq i32 %25, 115
  br i1 %or.cond.i31, label %26, label %scanLaterSet.exit

26:                                               ; preds = %24
  %27 = getelementptr inbounds nuw i8, ptr %11, i64 8
  %28 = load ptr, ptr %27, align 8, !tbaa !41
  %29 = load ptr, ptr %28, align 8, !tbaa !64
  call void @llvm.lifetime.start.p0(i64 8, ptr nonnull %6) #10
  store ptr %28, ptr %6, align 8, !tbaa !97
  call void @llvm.lifetime.start.p0(i64 24, ptr nonnull %7) #10
  call void @llvm.memcpy.p0.p0.i64(ptr noundef nonnull align 8 dereferenceable(24) %7, ptr noundef nonnull align 8 dereferenceable(24) @__const.activeDefragCycle.defragfns, i64 24, i1 false)
  %30 = load i64, ptr %1, align 8, !tbaa !94
  %31 = call i64 @dictScanDefrag(ptr noundef %29, i64 noundef %30, ptr noundef nonnull @scanLaterZsetCallback, ptr noundef nonnull %7, ptr noundef nonnull %6) #10
  store i64 %31, ptr %1, align 8, !tbaa !94
  call void @llvm.lifetime.end.p0(i64 24, ptr nonnull %7) #10
  call void @llvm.lifetime.end.p0(i64 8, ptr nonnull %6) #10
  br label %scanLaterSet.exit

32:                                               ; preds = %10
  %33 = and i32 %12, 255
  %or.cond.i32 = icmp eq i32 %33, 36
  br i1 %or.cond.i32, label %34, label %scanLaterSet.exit

34:                                               ; preds = %32
  %35 = getelementptr inbounds nuw i8, ptr %11, i64 8
  %36 = load ptr, ptr %35, align 8, !tbaa !41
  call void @llvm.lifetime.start.p0(i64 24, ptr nonnull %5) #10
  call void @llvm.memcpy.p0.p0.i64(ptr noundef nonnull align 8 dereferenceable(24) %5, ptr noundef nonnull align 8 dereferenceable(24) @__const.scanLaterHash.defragfns, i64 24, i1 false)
  %37 = load i64, ptr %1, align 8, !tbaa !94
  %38 = call i64 @dictScanDefrag(ptr noundef %36, i64 noundef %37, ptr noundef nonnull @activeDefragHfieldDictCallback, ptr noundef nonnull %5, ptr noundef %36) #10
  store i64 %38, ptr %1, align 8, !tbaa !94
  call void @llvm.lifetime.end.p0(i64 24, ptr nonnull %5) #10
  br label %scanLaterSet.exit

39:                                               ; preds = %10
  %40 = tail call i32 @scanLaterStreamListpacks(ptr noundef nonnull %11, ptr noundef %1, i64 noundef %2)
  br label %scanLaterSet.exit

41:                                               ; preds = %10
  call void @llvm.lifetime.start.p0(i64 16, ptr nonnull %9) #10
  %42 = getelementptr inbounds nuw i8, ptr %9, i64 4
  store i32 2147483646, ptr %42, align 4, !tbaa !39
  store i32 0, ptr %9, align 8
  %43 = tail call ptr @dictGetKey(ptr noundef nonnull %0) #10
  %44 = getelementptr inbounds nuw i8, ptr %9, i64 8
  store ptr %43, ptr %44, align 8, !tbaa !41
  %45 = call i32 @moduleLateDefrag(ptr noundef nonnull %9, ptr noundef nonnull %11, ptr noundef %1, i64 noundef %2, i32 noundef %3) #10
  call void @llvm.lifetime.end.p0(i64 16, ptr nonnull %9) #10
  br label %scanLaterSet.exit

46:                                               ; preds = %10
  store i64 0, ptr %1, align 8, !tbaa !94
  br label %scanLaterSet.exit

47:                                               ; preds = %4
  store i64 0, ptr %1, align 8, !tbaa !94
  br label %scanLaterSet.exit

scanLaterSet.exit:                                ; preds = %34, %32, %26, %24, %19, %17, %46, %47, %14, %39, %41
  %.1 = phi i32 [ %16, %14 ], [ %40, %39 ], [ %45, %41 ], [ 0, %47 ], [ 0, %46 ], [ 0, %17 ], [ 0, %19 ], [ 0, %24 ], [ 0, %26 ], [ 0, %32 ], [ 0, %34 ]
  ret i32 %.1
}